; Function Attrs: nounwind sspstrong uwtable
define internal range(i64 1, 0) i64 @time_to_s(i64 noundef %0) #1 {
  %2 = tail call ptr @rb_check_typeddata(i64 noundef %0, ptr noundef nonnull @time_data_type) #21
  %3 = getelementptr inbounds nuw i8, ptr %2, i64 40
  %4 = load i64, ptr %3, align 8
  %5 = and i64 %4, 61572651155456
  switch i64 %5, label %12 [
    i64 26388279066624, label %6
    i64 8796093022208, label %9
  ]

6:                                                ; preds = %1
  %7 = load i64, ptr @rb_eTypeError, align 8, !tbaa !11
  %8 = tail call i64 @rb_obj_class(i64 noundef %0) #21
  tail call void (i64, ptr, ...) @rb_raise(i64 noundef %7, ptr noundef nonnull @.str.92, i64 noundef %8) #22
  unreachable

9:                                                ; preds = %1
  %10 = tail call nonnull ptr @rb_usascii_encoding() #21
  %11 = tail call fastcc i64 @strftime_cstr(ptr noundef nonnull @.str.120, i64 noundef 21, i64 noundef %0, ptr noundef %10)
  br label %15

12:                                               ; preds = %1
  %13 = tail call nonnull ptr @rb_usascii_encoding() #21
  %14 = tail call fastcc i64 @strftime_cstr(ptr noundef nonnull @.str.121, i64 noundef 20, i64 noundef %0, ptr noundef %13)
  br label %15

15:                                               ; preds = %12, %9
  %.0 = phi i64 [ %11, %9 ], [ %14, %12 ]
  ret i64 %.0
}